target datalayout = "e-m:e-p270:32:32-p271:32:32-p272:64:64-i64:64-i128:128-f80:128-n8:16:32:64-S128"
target triple = "x86_64-pc-linux-gnu"

%"class.open3d::core::Device" = type { i32, i32 }
%"class.std::__shared_ptr" = type { ptr, %"class.std::__shared_count" }
%"class.std::__shared_count" = type { ptr }

@.str = private unnamed_addr constant [139 x i8] c"generated/home/dtcxzyw/WorkSpace/Projects/compilers/llvm-opt-benchmark/bench/open3d/Open3D/cpp/open3d/t/geometry/kernel/VoxelBlockGrid.cpp\00", align 1
@.str.1 = private unnamed_addr constant [53 x i8] c"Not built with CUDA, cannot call PointCloudTouchCUDA\00", align 1
@.str.2 = private unnamed_addr constant [21 x i8] c"Unimplemented device\00", align 1

; Function Attrs: mustprogress nounwind ssp uwtable
define linkonce_odr hidden noundef ptr @_ZNKSt12__shared_ptrIN6open3d4core7HashMapELN9__gnu_cxx12_Lock_policyE2EE3getEv(ptr noundef nonnull align 8 dereferenceable(16) %0) #1 comdat align 2 {
  %2 = alloca ptr, align 8
  store ptr %0, ptr %2, align 8, !tbaa !23
  %3 = load ptr, ptr %2, align 8
  %4 = getelementptr inbounds nuw %"class.std::__shared_ptr", ptr %3, i32 0, i32 0
  %5 = load ptr, ptr %4, align 8, !tbaa !25
  ret ptr %5
}

; Function Attrs: inlinehint mustprogress nounwind ssp uwtable
define linkonce_odr hidden noundef i32 @_ZNK6open3d4core6Device7GetTypeEv(ptr noundef nonnull align 4 dereferenceable(8) %0) #6 comdat align 2 {
  %2 = alloca ptr, align 8
  store ptr %0, ptr %2, align 8, !tbaa !30
  %3 = load ptr, ptr %2, align 8
  %4 = getelementptr inbounds nuw %"class.open3d::core::Device", ptr %3, i32 0, i32 0
  %5 = load i32, ptr %4, align 4, !tbaa !32
  ret i32 %5
}

; Function Attrs: mustprogress nounwind ssp uwtable
define linkonce_odr hidden noundef ptr @_ZNKSt19__shared_ptr_accessIN6open3d4core7HashMapELN9__gnu_cxx12_Lock_policyE2ELb0ELb0EE6_M_getEv(ptr noundef nonnull align 1 dereferenceable(1) %0) #1 comdat align 2 {
  %2 = alloca ptr, align 8
  store ptr %0, ptr %2, align 8, !tbaa !15
  %3 = load ptr, ptr %2, align 8
  %4 = call noundef ptr @_ZNKSt12__shared_ptrIN6open3d4core7HashMapELN9__gnu_cxx12_Lock_policyE2EE3getEv(ptr noundef nonnull align 8 dereferenceable(16) %3) #24
  ret ptr %4
}

; Function Attrs: inlinehint mustprogress ssp uwtable
define linkonce_odr hidden noundef zeroext i1 @_ZNK6open3d4core8IsDevice6IsCUDAEv(ptr noundef nonnull align 8 dereferenceable(8) %0) #2 comdat align 2 {
  %2 = alloca ptr, align 8
  %3 = alloca %"class.open3d::core::Device", align 4
  store ptr %0, ptr %2, align 8, !tbaa !17
  %4 = load ptr, ptr %2, align 8
  call void @llvm.lifetime.start.p0(i64 8, ptr %3) #24
  %5 = load ptr, ptr %4, align 8, !tbaa !19
  %6 = getelementptr inbounds ptr, ptr %5, i64 2
  %7 = load ptr, ptr %6, align 8
  %8 = call i64 %7(ptr noundef nonnull align 8 dereferenceable(8) %4)
  store i64 %8, ptr %3, align 4
  %9 = call noundef i32 @_ZNK6open3d4core6Device7GetTypeEv(ptr noundef nonnull align 4 dereferenceable(8) %3)
  %10 = icmp eq i32 %9, 1
  call void @llvm.lifetime.end.p0(i64 8, ptr %3) #24
  ret i1 %10
}

; Function Attrs: inlinehint mustprogress ssp uwtable
define linkonce_odr hidden noundef zeroext i1 @_ZNK6open3d4core8IsDevice5IsCPUEv(ptr noundef nonnull align 8 dereferenceable(8) %0) #2 comdat align 2 {
  %2 = alloca ptr, align 8
  %3 = alloca %"class.open3d::core::Device", align 4
  store ptr %0, ptr %2, align 8, !tbaa !17
  %4 = load ptr, ptr %2, align 8
  call void @llvm.lifetime.start.p0(i64 8, ptr %3) #24
  %5 = load ptr, ptr %4, align 8, !tbaa !19
  %6 = getelementptr inbounds ptr, ptr %5, i64 2
  %7 = load ptr, ptr %6, align 8
  %8 = call i64 %7(ptr noundef nonnull align 8 dereferenceable(8) %4)
  store i64 %8, ptr %3, align 4
  %9 = call noundef i32 @_ZNK6open3d4core6Device7GetTypeEv(ptr noundef nonnull align 4 dereferenceable(8) %3)
  %10 = icmp eq i32 %9, 0
  call void @llvm.lifetime.end.p0(i64 8, ptr %3) #24
  ret i1 %10
}

; Function Attrs: mustprogress nounwind ssp uwtable
define linkonce_odr hidden noundef ptr @_ZNKSt19__shared_ptr_accessIN6open3d4core7HashMapELN9__gnu_cxx12_Lock_policyE2ELb0ELb0EEptEv(ptr noundef nonnull align 1 dereferenceable(1) %0) #1 comdat align 2 {
  %2 = alloca ptr, align 8
  store ptr %0, ptr %2, align 8, !tbaa !15
  %3 = load ptr, ptr %2, align 8
  %4 = call noundef ptr @_ZNKSt19__shared_ptr_accessIN6open3d4core7HashMapELN9__gnu_cxx12_Lock_policyE2ELb0ELb0EE6_M_getEv(ptr noundef nonnull align 1 dereferenceable(1) %3) #24
  ret ptr %4
}

; Function Attrs: mustprogress ssp uwtable
define hidden void @_ZN6open3d1t8geometry6kernel10voxel_grid15PointCloudTouchERSt10shared_ptrINS_4core7HashMapEERKNS5_6TensorERS9_iff(ptr noundef nonnull align 8 dereferenceable(16) %0, ptr noundef nonnull align 8 dereferenceable(160) %1, ptr noundef nonnull align 8 dereferenceable(160) %2, i32 noundef %3, float noundef %4, float noundef %5) #0 {
  %7 = alloca ptr, align 8
  %8 = alloca ptr, align 8
  %9 = alloca ptr, align 8
  %10 = alloca i32, align 4
  %11 = alloca float, align 4
  %12 = alloca float, align 4
  store ptr %0, ptr %7, align 8, !tbaa !4
  store ptr %1, ptr %8, align 8, !tbaa !9
  store ptr %2, ptr %9, align 8, !tbaa !9
  store i32 %3, ptr %10, align 4, !tbaa !11
  store float %4, ptr %11, align 4, !tbaa !13
  store float %5, ptr %12, align 4, !tbaa !13
  %13 = load ptr, ptr %7, align 8, !tbaa !4
  %14 = call noundef ptr @_ZNKSt19__shared_ptr_accessIN6open3d4core7HashMapELN9__gnu_cxx12_Lock_policyE2ELb0ELb0EEptEv(ptr noundef nonnull align 1 dereferenceable(1) %13) #24
  %15 = call noundef zeroext i1 @_ZNK6open3d4core8IsDevice5IsCPUEv(ptr noundef nonnull align 8 dereferenceable(8) %14)
  br i1 %15, label %16, label %23

16:                                               ; preds = %6
  %17 = load ptr, ptr %7, align 8, !tbaa !4
  %18 = load ptr, ptr %8, align 8, !tbaa !9
  %19 = load ptr, ptr %9, align 8, !tbaa !9
  %20 = load i32, ptr %10, align 4, !tbaa !11
  %21 = load float, ptr %11, align 4, !tbaa !13
  %22 = load float, ptr %12, align 4, !tbaa !13
  call void @_ZN6open3d1t8geometry6kernel10voxel_grid18PointCloudTouchCPUERSt10shared_ptrINS_4core7HashMapEERKNS5_6TensorERS9_iff(ptr noundef nonnull align 8 dereferenceable(16) %17, ptr noundef nonnull align 8 dereferenceable(160) %18, ptr noundef nonnull align 8 dereferenceable(160) %19, i32 noundef %20, float noundef %21, float noundef %22)
  br label %29

23:                                               ; preds = %6
  %24 = load ptr, ptr %7, align 8, !tbaa !4
  %25 = call noundef ptr @_ZNKSt19__shared_ptr_accessIN6open3d4core7HashMapELN9__gnu_cxx12_Lock_policyE2ELb0ELb0EEptEv(ptr noundef nonnull align 1 dereferenceable(1) %24) #24
  %26 = call noundef zeroext i1 @_ZNK6open3d4core8IsDevice6IsCUDAEv(ptr noundef nonnull align 8 dereferenceable(8) %25)
  br i1 %26, label %27, label %28

27:                                               ; preds = %23
  call void @_ZN6open3d7utility6Logger9LogError_IJEEEvPKciS4_S4_DpOT_(ptr noundef @.str, i32 noundef 35, ptr noundef @__PRETTY_FUNCTION__._ZN6open3d1t8geometry6kernel10voxel_grid15PointCloudTouchERSt10shared_ptrINS_4core7HashMapEERKNS5_6TensorERS9_iff, ptr noundef @.str.1) #27
  unreachable

28:                                               ; preds = %23
  call void @_ZN6open3d7utility6Logger9LogError_IJEEEvPKciS4_S4_DpOT_(ptr noundef @.str, i32 noundef 37, ptr noundef @__PRETTY_FUNCTION__._ZN6open3d1t8geometry6kernel10voxel_grid15PointCloudTouchERSt10shared_ptrINS_4core7HashMapEERKNS5_6TensorERS9_iff, ptr noundef @.str.2) #27
  unreachable

29:                                               ; preds = %16
  ret void
}