; Function Attrs: mustprogress ssp uwtable
define hidden void @_ZN6open3d1t8geometry6kernel10voxel_grid15PointCloudTouchERSt10shared_ptrINS_4core7HashMapEERKNS5_6TensorERS9_iff(ptr noundef nonnull align 8 dereferenceable(16) %0, ptr noundef nonnull align 8 dereferenceable(160) %1, ptr noundef nonnull align 8 dereferenceable(160) %2, i32 noundef %3, float noundef %4, float noundef %5) local_unnamed_addr #0 {
  %7 = load ptr, ptr %0, align 8, !tbaa !4
  %8 = load ptr, ptr %7, align 8, !tbaa !12
  %9 = getelementptr inbounds nuw i8, ptr %8, i64 16
  %10 = load ptr, ptr %9, align 8
  %11 = tail call i64 %10(ptr noundef nonnull align 8 dereferenceable(8) %7)
  %12 = and i64 %11, 4294967295
  %13 = icmp eq i64 %12, 0
  br i1 %13, label %14, label %15

14:                                               ; preds = %6
  tail call void @_ZN6open3d1t8geometry6kernel10voxel_grid18PointCloudTouchCPUERSt10shared_ptrINS_4core7HashMapEERKNS5_6TensorERS9_iff(ptr noundef nonnull align 8 dereferenceable(16) %0, ptr noundef nonnull align 8 dereferenceable(160) %1, ptr noundef nonnull align 8 dereferenceable(160) %2, i32 noundef %3, float noundef %4, float noundef %5)
  ret void

15:                                               ; preds = %6
  %16 = load ptr, ptr %0, align 8, !tbaa !4
  %17 = load ptr, ptr %16, align 8, !tbaa !12
  %18 = getelementptr inbounds nuw i8, ptr %17, i64 16
  %19 = load ptr, ptr %18, align 8
  %20 = tail call i64 %19(ptr noundef nonnull align 8 dereferenceable(8) %16)
  %21 = and i64 %20, 4294967295
  %22 = icmp eq i64 %21, 1
  br i1 %22, label %23, label %24

23:                                               ; preds = %15
  tail call void @_ZN6open3d7utility6Logger9LogError_IJEEEvPKciS4_S4_DpOT_(ptr noundef nonnull @.str, i32 noundef 35, ptr noundef nonnull @__PRETTY_FUNCTION__._ZN6open3d1t8geometry6kernel10voxel_grid15PointCloudTouchERSt10shared_ptrINS_4core7HashMapEERKNS5_6TensorERS9_iff, ptr noundef nonnull @.str.1) #30
  unreachable

24:                                               ; preds = %15
  tail call void @_ZN6open3d7utility6Logger9LogError_IJEEEvPKciS4_S4_DpOT_(ptr noundef nonnull @.str, i32 noundef 37, ptr noundef nonnull @__PRETTY_FUNCTION__._ZN6open3d1t8geometry6kernel10voxel_grid15PointCloudTouchERSt10shared_ptrINS_4core7HashMapEERKNS5_6TensorERS9_iff, ptr noundef nonnull @.str.2) #30
  unreachable
}